; ModuleID = '19/2669.c'
source_filename = "19/2669.c"
target datalayout = "e-m:e-p270:32:32-p271:32:32-p272:64:64-i64:64-f80:128-n8:16:32:64-S128"
target triple = "x86_64-pc-linux-gnu"

@.str = private unnamed_addr constant [3 x i8] c"%s\00", align 1
@.str.1 = private unnamed_addr constant [3 x i8] c"%c\00", align 1
@.str.2 = private unnamed_addr constant [5 x i8] c"%s%s\00", align 1
@.str.3 = private unnamed_addr constant [4 x i8] c" %s\00", align 1

; Function Attrs: noinline nounwind uwtable
define dso_local i32 @main() #0 {
  %1 = alloca i32, align 4
  %2 = alloca [100 x [100 x i8]], align 16
  %3 = alloca [100 x i8], align 16
  %4 = alloca [100 x i8], align 16
  %5 = alloca i32, align 4
  %6 = alloca i8, align 1
  %7 = alloca i32, align 4
  store i32 0, i32* %1, align 4
  store i32 0, i32* %5, align 4
  br label %8

8:                                                ; preds = %23, %0
  %9 = load i32, i32* %5, align 4
  %10 = sext i32 %9 to i64
  %11 = getelementptr inbounds [100 x [100 x i8]], [100 x [100 x i8]]* %2, i64 0, i64 %10
  %12 = getelementptr inbounds [100 x i8], [100 x i8]* %11, i64 0, i64 0
  %13 = call i32 (i8*, ...) @__isoc99_scanf(i8* getelementptr inbounds ([3 x i8], [3 x i8]* @.str, i64 0, i64 0), i8* %12)
  %14 = icmp ne i32 %13, -1
  br i1 %14, label %15, label %24

15:                                               ; preds = %8
  %16 = load i32, i32* %5, align 4
  %17 = add nsw i32 %16, 1
  store i32 %17, i32* %5, align 4
  %18 = call i32 (i8*, ...) @__isoc99_scanf(i8* getelementptr inbounds ([3 x i8], [3 x i8]* @.str.1, i64 0, i64 0), i8* %6)
  %19 = load i8, i8* %6, align 1
  %20 = sext i8 %19 to i32
  %21 = icmp eq i32 %20, 10
  br i1 %21, label %22, label %23

22:                                               ; preds = %15
  br label %24

23:                                               ; preds = %15
  br label %8

24:                                               ; preds = %22, %8
  %25 = getelementptr inbounds [100 x i8], [100 x i8]* %3, i64 0, i64 0
  %26 = getelementptr inbounds [100 x i8], [100 x i8]* %4, i64 0, i64 0
  %27 = call i32 (i8*, ...) @__isoc99_scanf(i8* getelementptr inbounds ([5 x i8], [5 x i8]* @.str.2, i64 0, i64 0), i8* %25, i8* %26)
  store i32 0, i32* %7, align 4
  %28 = getelementptr inbounds [100 x [100 x i8]], [100 x [100 x i8]]* %2, i64 0, i64 0
  %29 = getelementptr inbounds [100 x i8], [100 x i8]* %28, i64 0, i64 0
  %30 = getelementptr inbounds [100 x i8], [100 x i8]* %3, i64 0, i64 0
  %31 = call i32 @strcmp(i8* %29, i8* %30) #3
  %32 = icmp ne i32 %31, 0
  br i1 %32, label %33, label %37

33:                                               ; preds = %24
  %34 = getelementptr inbounds [100 x [100 x i8]], [100 x [100 x i8]]* %2, i64 0, i64 0
  %35 = getelementptr inbounds [100 x i8], [100 x i8]* %34, i64 0, i64 0
  %36 = call i32 (i8*, ...) @printf(i8* getelementptr inbounds ([3 x i8], [3 x i8]* @.str, i64 0, i64 0), i8* %35)
  br label %40

37:                                               ; preds = %24
  %38 = getelementptr inbounds [100 x i8], [100 x i8]* %4, i64 0, i64 0
  %39 = call i32 (i8*, ...) @printf(i8* getelementptr inbounds ([3 x i8], [3 x i8]* @.str, i64 0, i64 0), i8* %38)
  br label %40

40:                                               ; preds = %37, %33
  store i32 1, i32* %7, align 4
  br label %41

41:                                               ; preds = %63, %40
  %42 = load i32, i32* %7, align 4
  %43 = load i32, i32* %5, align 4
  %44 = icmp slt i32 %42, %43
  br i1 %44, label %45, label %66

45:                                               ; preds = %41
  %46 = load i32, i32* %7, align 4
  %47 = sext i32 %46 to i64
  %48 = getelementptr inbounds [100 x [100 x i8]], [100 x [100 x i8]]* %2, i64 0, i64 %47
  %49 = getelementptr inbounds [100 x i8], [100 x i8]* %48, i64 0, i64 0
  %50 = getelementptr inbounds [100 x i8], [100 x i8]* %3, i64 0, i64 0
  %51 = call i32 @strcmp(i8* %49, i8* %50) #3
  %52 = icmp ne i32 %51, 0
  br i1 %52, label %53, label %59

53:                                               ; preds = %45
  %54 = load i32, i32* %7, align 4
  %55 = sext i32 %54 to i64
  %56 = getelementptr inbounds [100 x [100 x i8]], [100 x [100 x i8]]* %2, i64 0, i64 %55
  %57 = getelementptr inbounds [100 x i8], [100 x i8]* %56, i64 0, i64 0
  %58 = call i32 (i8*, ...) @printf(i8* getelementptr inbounds ([4 x i8], [4 x i8]* @.str.3, i64 0, i64 0), i8* %57)
  br label %62

59:                                               ; preds = %45
  %60 = getelementptr inbounds [100 x i8], [100 x i8]* %4, i64 0, i64 0
  %61 = call i32 (i8*, ...) @printf(i8* getelementptr inbounds ([4 x i8], [4 x i8]* @.str.3, i64 0, i64 0), i8* %60)
  br label %62

62:                                               ; preds = %59, %53
  br label %63

63:                                               ; preds = %62
  %64 = load i32, i32* %7, align 4
  %65 = add nsw i32 %64, 1
  store i32 %65, i32* %7, align 4
  br label %41

66:                                               ; preds = %41
  ret i32 0
}

declare dso_local i32 @__isoc99_scanf(i8*, ...) #1

; Function Attrs: nounwind readonly
declare dso_local i32 @strcmp(i8*, i8*) #2

declare dso_local i32 @printf(i8*, ...) #1


!llvm.module.flags = !{!0}
!llvm.ident = !{!1}

!0 = !{i32 1, !"wchar_size", i32 4}
!1 = !{!"clang version 10.0.0-4ubuntu1 "}
