; ModuleID = 'source-C-CXX/18/2669.c'
source_filename = "source-C-CXX/18/2669.c"
target datalayout = "e-m:e-p270:32:32-p271:32:32-p272:64:64-i64:64-f80:128-n8:16:32:64-S128"
target triple = "x86_64-pc-linux-gnu"

@.str = private unnamed_addr constant [3 x i8] c"%s\00", align 1
@.str.1 = private unnamed_addr constant [3 x i8] c"%c\00", align 1
@.str.2 = private unnamed_addr constant [5 x i8] c"%s%s\00", align 1
@.str.3 = private unnamed_addr constant [4 x i8] c" %s\00", align 1

; Function Attrs: nofree nounwind sspstrong uwtable
define dso_local i32 @main() local_unnamed_addr #0 {
  %1 = alloca [100 x [100 x i8]], align 16
  %2 = alloca [100 x i8], align 16
  %3 = alloca [100 x i8], align 16
  %4 = alloca i8, align 1
  %5 = getelementptr inbounds [100 x [100 x i8]], [100 x [100 x i8]]* %1, i64 0, i64 0, i64 0
  call void @llvm.lifetime.start.p0i8(i64 10000, i8* nonnull %5) #4
  %6 = getelementptr inbounds [100 x i8], [100 x i8]* %2, i64 0, i64 0
  call void @llvm.lifetime.start.p0i8(i64 100, i8* nonnull %6) #4
  %7 = getelementptr inbounds [100 x i8], [100 x i8]* %3, i64 0, i64 0
  call void @llvm.lifetime.start.p0i8(i64 100, i8* nonnull %7) #4
  call void @llvm.lifetime.start.p0i8(i64 1, i8* nonnull %4) #4
  br label %8

8:                                                ; preds = %14, %0
  %9 = phi i64 [ %15, %14 ], [ 0, %0 ]
  %10 = phi i32 [ %16, %14 ], [ 0, %0 ]
  %11 = getelementptr inbounds [100 x [100 x i8]], [100 x [100 x i8]]* %1, i64 0, i64 %9, i64 0
  %12 = call i32 (i8*, ...) @__isoc99_scanf(i8* getelementptr inbounds ([3 x i8], [3 x i8]* @.str, i64 0, i64 0), i8* nonnull %11)
  %13 = icmp eq i32 %12, -1
  br i1 %13, label %20, label %14

14:                                               ; preds = %8
  %15 = add nuw i64 %9, 1
  %16 = add nuw nsw i32 %10, 1
  %17 = call i32 (i8*, ...) @__isoc99_scanf(i8* getelementptr inbounds ([3 x i8], [3 x i8]* @.str.1, i64 0, i64 0), i8* nonnull %4)
  %18 = load i8, i8* %4, align 1, !tbaa !5
  %19 = icmp eq i8 %18, 10
  br i1 %19, label %22, label %8, !llvm.loop !8

20:                                               ; preds = %8
  %21 = trunc i64 %9 to i32
  br label %22

22:                                               ; preds = %14, %20
  %23 = phi i32 [ %21, %20 ], [ %16, %14 ]
  %24 = call i32 (i8*, ...) @__isoc99_scanf(i8* getelementptr inbounds ([5 x i8], [5 x i8]* @.str.2, i64 0, i64 0), i8* nonnull %6, i8* nonnull %7)
  %25 = call i32 @strcmp(i8* noundef nonnull %5, i8* noundef nonnull %6) #5
  %26 = icmp eq i32 %25, 0
  %27 = select i1 %26, i8* %7, i8* %5
  %28 = call i32 (i8*, ...) @printf(i8* nonnull dereferenceable(1) getelementptr inbounds ([3 x i8], [3 x i8]* @.str, i64 0, i64 0), i8* nonnull %27)
  %29 = icmp sgt i32 %23, 1
  br i1 %29, label %30, label %41

30:                                               ; preds = %22
  %31 = zext i32 %23 to i64
  br label %32

32:                                               ; preds = %30, %32
  %33 = phi i64 [ 1, %30 ], [ %39, %32 ]
  %34 = getelementptr inbounds [100 x [100 x i8]], [100 x [100 x i8]]* %1, i64 0, i64 %33, i64 0
  %35 = call i32 @strcmp(i8* noundef nonnull %34, i8* noundef nonnull %6) #5
  %36 = icmp eq i32 %35, 0
  %37 = select i1 %36, i8* %7, i8* %34
  %38 = call i32 (i8*, ...) @printf(i8* nonnull dereferenceable(1) getelementptr inbounds ([4 x i8], [4 x i8]* @.str.3, i64 0, i64 0), i8* nonnull %37)
  %39 = add nuw nsw i64 %33, 1
  %40 = icmp eq i64 %39, %31
  br i1 %40, label %41, label %32, !llvm.loop !10

41:                                               ; preds = %32, %22
  call void @llvm.lifetime.end.p0i8(i64 1, i8* nonnull %4) #4
  call void @llvm.lifetime.end.p0i8(i64 100, i8* nonnull %7) #4
  call void @llvm.lifetime.end.p0i8(i64 100, i8* nonnull %6) #4
  call void @llvm.lifetime.end.p0i8(i64 10000, i8* nonnull %5) #4
  ret i32 0
}

; Function Attrs: argmemonly mustprogress nofree nosync nounwind willreturn
declare void @llvm.lifetime.start.p0i8(i64 immarg, i8* nocapture) #1

; Function Attrs: nofree nounwind
declare noundef i32 @__isoc99_scanf(i8* nocapture noundef readonly, ...) local_unnamed_addr #2

; Function Attrs: argmemonly mustprogress nofree nounwind readonly willreturn
declare i32 @strcmp(i8* nocapture, i8* nocapture) local_unnamed_addr #3

; Function Attrs: nofree nounwind
declare noundef i32 @printf(i8* nocapture noundef readonly, ...) local_unnamed_addr #2

; Function Attrs: argmemonly mustprogress nofree nosync nounwind willreturn
declare void @llvm.lifetime.end.p0i8(i64 immarg, i8* nocapture) #1


!llvm.module.flags = !{!0, !1, !2, !3}
!llvm.ident = !{!4}

!0 = !{i32 1, !"wchar_size", i32 4}
!1 = !{i32 7, !"PIC Level", i32 2}
!2 = !{i32 7, !"PIE Level", i32 2}
!3 = !{i32 7, !"uwtable", i32 1}
!4 = !{!"clang version 13.0.0"}
!5 = !{!6, !6, i64 0}
!6 = !{!"omnipotent char", !7, i64 0}
!7 = !{!"Simple C/C++ TBAA"}
!8 = distinct !{!8, !9}
!9 = !{!"llvm.loop.mustprogress"}
!10 = distinct !{!10, !9}
